(dp0
I10752
VWar
p1
sI80
VCrime
p2
sI10402
VMusic
p3
sI35
VComedy
p4
sI36
VHistory
p5
sI37
VWestern
p6
sI53
VThriller
p7
sI9648
VMystery
p8
sI12
VAdventure
p9
sI10770
VTV Movie
p10
sI14
VFantasy
p11
sI16
VAnimation
p12
sI10769
S'Foreign'
p13
sI18
VDrama
p14
sI99
VDocumentary
p15
sI878
VScience Fiction
p16
sI27
VHorror
p17
sI28
VAction
p18
sI10749
VRomance
p19
sI10751
VFamily
p20
s.